target datalayout = "e-m:e-p270:32:32-p271:32:32-p272:64:64-i64:64-i128:128-f80:128-n8:16:32:64-S128"
target triple = "x86_64-unknown-linux-gnu"

%struct.QTailQLink = type { ptr, ptr }
%struct.BdrvCheckResult = type { i32, i32, i32, i32, i32, i64, %struct.BlockFragInfo }
%struct.BlockFragInfo = type { i64, i64, i64, i64 }
%struct.BlockDriverState = type { i32, i8, i8, i8, i8, i8, ptr, ptr, ptr, %struct.anon.0, i8, [4096 x i8], [4096 x i8], [4096 x i8], [16 x i8], ptr, [4096 x i8], %struct.BlockLimits, i32, i32, i32, i32, [32 x i8], %union.anon.1, %union.anon.2, %union.anon.3, i32, [16 x %struct.anon.4], ptr, %struct.anon.5, ptr, ptr, %struct.anon.6, ptr, ptr, i32, ptr, i64, i64, %struct.QemuMutex, %struct.anon.7, %struct.Stat64, i32, i32, i32, i32, i32, i32, %struct.QemuMutex, %struct.anon.8, %struct.CoQueue, i8, i32, i8, %struct.CoMutex, ptr, ptr }
%struct.anon.0 = type { ptr }
%struct.BlockLimits = type { i32, i64, i32, i64, i32, i32, i32, i64, i32, i64, i64, i32, i8, i32, i32, i32, i32, i32, i32, i32 }
%union.anon.1 = type { %struct.QTailQLink }
%union.anon.2 = type { %struct.QTailQLink }
%union.anon.3 = type { %struct.QTailQLink }
%struct.anon.4 = type { ptr }
%struct.anon.5 = type { ptr }
%struct.anon.6 = type { ptr }
%struct.anon.7 = type { ptr }
%struct.Stat64 = type { i64 }
%struct.QemuMutex = type { %union.pthread_mutex_t, i8 }
%union.pthread_mutex_t = type { %struct.__pthread_mutex_s }
%struct.__pthread_mutex_s = type { i32, i32, i32, i32, i32, i16, i16, %struct.__pthread_internal_list }
%struct.__pthread_internal_list = type { ptr, ptr }
%struct.anon.8 = type { ptr }
%struct.CoQueue = type { %struct.anon.9 }
%struct.anon.9 = type { ptr, ptr }
%struct.CoMutex = type { i32, ptr, %struct.anon.10, %struct.anon.10, i32, i32, ptr }
%struct.anon.10 = type { ptr }
%struct.BDRVParallelsState = type { %struct.CoMutex, ptr, i32, i8, ptr, i32, ptr, i64, ptr, i32, i64, i64, i64, i32, i32, i32, i32, ptr }
%struct.QemuLockable = type { ptr, ptr, ptr }

@stderr = external global ptr, align 8
@.str.39 = private unnamed_addr constant [35 x i8] c"%s image was not closed correctly\0A\00", align 1
@.str.40 = private unnamed_addr constant [10 x i8] c"Repairing\00", align 1
@.str.41 = private unnamed_addr constant [6 x i8] c"ERROR\00", align 1

; Function Attrs: nounwind sspstrong uwtable
define internal i32 @le32_to_cpu(i32 noundef %v) #0 {
entry:
  %v.addr = alloca i32, align 4
  store i32 %v, ptr %v.addr, align 4
  %0 = load i32, ptr %v.addr, align 4
  ret i32 %0
}

; Function Attrs: nounwind sspstrong uwtable
define internal void @glib_autoptr_clear_QemuLockable(ptr noundef %_ptr) #0 {
entry:
  %_ptr.addr = alloca ptr, align 8
  store ptr %_ptr, ptr %_ptr.addr, align 8
  %0 = load ptr, ptr %_ptr.addr, align 8
  %tobool = icmp ne ptr %0, null
  br i1 %tobool, label %if.then, label %if.end

if.then:                                          ; preds = %entry
  %1 = load ptr, ptr %_ptr.addr, align 8
  call void @qemu_lockable_auto_unlock(ptr noundef %1)
  br label %if.end

if.end:                                           ; preds = %if.then, %entry
  ret void
}

; Function Attrs: nounwind sspstrong uwtable
define internal void @qemu_lockable_unlock(ptr noundef %x) #0 {
entry:
  %x.addr = alloca ptr, align 8
  store ptr %x, ptr %x.addr, align 8
  %0 = load ptr, ptr %x.addr, align 8
  %unlock = getelementptr inbounds %struct.QemuLockable, ptr %0, i32 0, i32 2
  %1 = load ptr, ptr %unlock, align 8
  %2 = load ptr, ptr %x.addr, align 8
  %object = getelementptr inbounds %struct.QemuLockable, ptr %2, i32 0, i32 0
  %3 = load ptr, ptr %object, align 8
  call void %1(ptr noundef %3)
  ret void
}

; Function Attrs: nounwind sspstrong uwtable
define internal i64 @bat2sect(ptr noundef %s, i32 noundef %idx) #0 {
entry:
  %s.addr = alloca ptr, align 8
  %idx.addr = alloca i32, align 4
  store ptr %s, ptr %s.addr, align 8
  store i32 %idx, ptr %idx.addr, align 4
  %0 = load ptr, ptr %s.addr, align 8
  %bat_bitmap = getelementptr inbounds %struct.BDRVParallelsState, ptr %0, i32 0, i32 8
  %1 = load ptr, ptr %bat_bitmap, align 8
  %2 = load i32, ptr %idx.addr, align 4
  %idxprom = zext i32 %2 to i64
  %arrayidx = getelementptr i32, ptr %1, i64 %idxprom
  %3 = load i32, ptr %arrayidx, align 4
  %call = call i32 @le32_to_cpu(i32 noundef %3)
  %conv = zext i32 %call to i64
  %4 = load ptr, ptr %s.addr, align 8
  %off_multiplier = getelementptr inbounds %struct.BDRVParallelsState, ptr %4, i32 0, i32 16
  %5 = load i32, ptr %off_multiplier, align 4
  %conv1 = zext i32 %5 to i64
  %mul = mul i64 %conv, %conv1
  ret i64 %mul
}

; Function Attrs: nounwind sspstrong uwtable
define internal void @qemu_lockable_lock(ptr noundef %x) #0 {
entry:
  %x.addr = alloca ptr, align 8
  store ptr %x, ptr %x.addr, align 8
  %0 = load ptr, ptr %x.addr, align 8
  %lock = getelementptr inbounds %struct.QemuLockable, ptr %0, i32 0, i32 1
  %1 = load ptr, ptr %lock, align 8
  %2 = load ptr, ptr %x.addr, align 8
  %object = getelementptr inbounds %struct.QemuLockable, ptr %2, i32 0, i32 0
  %3 = load ptr, ptr %object, align 8
  call void %1(ptr noundef %3)
  ret void
}

; Function Attrs: nounwind sspstrong uwtable
define internal void @glib_autoptr_cleanup_QemuLockable(ptr noundef %_ptr) #0 {
entry:
  %_ptr.addr = alloca ptr, align 8
  store ptr %_ptr, ptr %_ptr.addr, align 8
  %0 = load ptr, ptr %_ptr.addr, align 8
  %1 = load ptr, ptr %0, align 8
  call void @glib_autoptr_clear_QemuLockable(ptr noundef %1)
  ret void
}

; Function Attrs: nounwind sspstrong uwtable
define internal void @qemu_lockable_auto_unlock(ptr noundef %x) #0 {
entry:
  %x.addr = alloca ptr, align 8
  store ptr %x, ptr %x.addr, align 8
  %0 = load ptr, ptr %x.addr, align 8
  %tobool = icmp ne ptr %0, null
  br i1 %tobool, label %if.then, label %if.end

if.then:                                          ; preds = %entry
  %1 = load ptr, ptr %x.addr, align 8
  call void @qemu_lockable_unlock(ptr noundef %1)
  br label %if.end

if.end:                                           ; preds = %if.then, %entry
  ret void
}

; Function Attrs: nounwind sspstrong uwtable
define internal void @parallels_collect_statistics(ptr noundef %bs, ptr noundef %res, i32 noundef %fix) #0 {
entry:
  %bs.addr = alloca ptr, align 8
  %res.addr = alloca ptr, align 8
  %fix.addr = alloca i32, align 4
  %s = alloca ptr, align 8
  %off = alloca i64, align 8
  %prev_off = alloca i64, align 8
  %i = alloca i32, align 4
  store ptr %bs, ptr %bs.addr, align 8
  store ptr %res, ptr %res.addr, align 8
  store i32 %fix, ptr %fix.addr, align 4
  %0 = load ptr, ptr %bs.addr, align 8
  %opaque = getelementptr inbounds %struct.BlockDriverState, ptr %0, i32 0, i32 7
  %1 = load ptr, ptr %opaque, align 8
  store ptr %1, ptr %s, align 8
  %2 = load ptr, ptr %s, align 8
  %bat_size = getelementptr inbounds %struct.BDRVParallelsState, ptr %2, i32 0, i32 9
  %3 = load i32, ptr %bat_size, align 8
  %conv = zext i32 %3 to i64
  %4 = load ptr, ptr %res.addr, align 8
  %bfi = getelementptr inbounds %struct.BdrvCheckResult, ptr %4, i32 0, i32 6
  %total_clusters = getelementptr inbounds %struct.BlockFragInfo, ptr %bfi, i32 0, i32 1
  store i64 %conv, ptr %total_clusters, align 8
  %5 = load ptr, ptr %res.addr, align 8
  %bfi1 = getelementptr inbounds %struct.BdrvCheckResult, ptr %5, i32 0, i32 6
  %compressed_clusters = getelementptr inbounds %struct.BlockFragInfo, ptr %bfi1, i32 0, i32 3
  store i64 0, ptr %compressed_clusters, align 8
  store i64 0, ptr %prev_off, align 8
  store i32 0, ptr %i, align 4
  br label %for.cond

for.cond:                                         ; preds = %for.inc, %entry
  %6 = load i32, ptr %i, align 4
  %7 = load ptr, ptr %s, align 8
  %bat_size2 = getelementptr inbounds %struct.BDRVParallelsState, ptr %7, i32 0, i32 9
  %8 = load i32, ptr %bat_size2, align 8
  %cmp = icmp ult i32 %6, %8
  br i1 %cmp, label %for.body, label %for.end

for.body:                                         ; preds = %for.cond
  %9 = load ptr, ptr %s, align 8
  %10 = load i32, ptr %i, align 4
  %call = call i64 @bat2sect(ptr noundef %9, i32 noundef %10)
  %shl = shl i64 %call, 9
  store i64 %shl, ptr %off, align 8
  %11 = load i64, ptr %off, align 8
  %cmp4 = icmp eq i64 %11, 0
  br i1 %cmp4, label %if.then, label %lor.lhs.false

lor.lhs.false:                                    ; preds = %for.body
  %12 = load i64, ptr %off, align 8
  %13 = load ptr, ptr %s, align 8
  %cluster_size = getelementptr inbounds %struct.BDRVParallelsState, ptr %13, i32 0, i32 15
  %14 = load i32, ptr %cluster_size, align 8
  %conv6 = zext i32 %14 to i64
  %add = add i64 %12, %conv6
  %15 = load ptr, ptr %res.addr, align 8
  %image_end_offset = getelementptr inbounds %struct.BdrvCheckResult, ptr %15, i32 0, i32 5
  %16 = load i64, ptr %image_end_offset, align 8
  %cmp7 = icmp sgt i64 %add, %16
  br i1 %cmp7, label %if.then, label %if.end

if.then:                                          ; preds = %lor.lhs.false, %for.body
  store i64 0, ptr %prev_off, align 8
  br label %for.inc

if.end:                                           ; preds = %lor.lhs.false
  %17 = load i64, ptr %prev_off, align 8
  %cmp9 = icmp ne i64 %17, 0
  br i1 %cmp9, label %land.lhs.true, label %if.end18

land.lhs.true:                                    ; preds = %if.end
  %18 = load i64, ptr %prev_off, align 8
  %19 = load ptr, ptr %s, align 8
  %cluster_size11 = getelementptr inbounds %struct.BDRVParallelsState, ptr %19, i32 0, i32 15
  %20 = load i32, ptr %cluster_size11, align 8
  %conv12 = zext i32 %20 to i64
  %add13 = add i64 %18, %conv12
  %21 = load i64, ptr %off, align 8
  %cmp14 = icmp ne i64 %add13, %21
  br i1 %cmp14, label %if.then16, label %if.end18

if.then16:                                        ; preds = %land.lhs.true
  %22 = load ptr, ptr %res.addr, align 8
  %bfi17 = getelementptr inbounds %struct.BdrvCheckResult, ptr %22, i32 0, i32 6
  %fragmented_clusters = getelementptr inbounds %struct.BlockFragInfo, ptr %bfi17, i32 0, i32 2
  %23 = load i64, ptr %fragmented_clusters, align 8
  %inc = add i64 %23, 1
  store i64 %inc, ptr %fragmented_clusters, align 8
  br label %if.end18

if.end18:                                         ; preds = %if.then16, %land.lhs.true, %if.end
  %24 = load i64, ptr %off, align 8
  store i64 %24, ptr %prev_off, align 8
  %25 = load ptr, ptr %res.addr, align 8
  %bfi19 = getelementptr inbounds %struct.BdrvCheckResult, ptr %25, i32 0, i32 6
  %allocated_clusters = getelementptr inbounds %struct.BlockFragInfo, ptr %bfi19, i32 0, i32 0
  %26 = load i64, ptr %allocated_clusters, align 8
  %inc20 = add i64 %26, 1
  store i64 %inc20, ptr %allocated_clusters, align 8
  br label %for.inc

for.inc:                                          ; preds = %if.end18, %if.then
  %27 = load i32, ptr %i, align 4
  %inc21 = add i32 %27, 1
  store i32 %inc21, ptr %i, align 4
  br label %for.cond, !llvm.loop !18

for.end:                                          ; preds = %for.cond
  ret void
}

; Function Attrs: nounwind sspstrong uwtable
define internal void @parallels_check_unclean(ptr noundef %bs, ptr noundef %res, i32 noundef %fix) #0 {
entry:
  %bs.addr = alloca ptr, align 8
  %res.addr = alloca ptr, align 8
  %fix.addr = alloca i32, align 4
  %s = alloca ptr, align 8
  store ptr %bs, ptr %bs.addr, align 8
  store ptr %res, ptr %res.addr, align 8
  store i32 %fix, ptr %fix.addr, align 4
  %0 = load ptr, ptr %bs.addr, align 8
  %opaque = getelementptr inbounds %struct.BlockDriverState, ptr %0, i32 0, i32 7
  %1 = load ptr, ptr %opaque, align 8
  store ptr %1, ptr %s, align 8
  %2 = load ptr, ptr %s, align 8
  %header_unclean = getelementptr inbounds %struct.BDRVParallelsState, ptr %2, i32 0, i32 3
  %3 = load i8, ptr %header_unclean, align 4
  %tobool = trunc i8 %3 to i1
  br i1 %tobool, label %if.end, label %if.then

if.then:                                          ; preds = %entry
  br label %if.end7

if.end:                                           ; preds = %entry
  %4 = load ptr, ptr @stderr, align 8
  %5 = load i32, ptr %fix.addr, align 4
  %and = and i32 %5, 2
  %tobool1 = icmp ne i32 %and, 0
  %cond = select i1 %tobool1, ptr @.str.40, ptr @.str.41
  %call = call i32 (ptr, ptr, ...) @fprintf(ptr noundef %4, ptr noundef @.str.39, ptr noundef %cond)
  %6 = load ptr, ptr %res.addr, align 8
  %corruptions = getelementptr inbounds %struct.BdrvCheckResult, ptr %6, i32 0, i32 0
  %7 = load i32, ptr %corruptions, align 8
  %inc = add i32 %7, 1
  store i32 %inc, ptr %corruptions, align 8
  %8 = load i32, ptr %fix.addr, align 4
  %and2 = and i32 %8, 2
  %tobool3 = icmp ne i32 %and2, 0
  br i1 %tobool3, label %if.then4, label %if.end7

if.then4:                                         ; preds = %if.end
  %9 = load ptr, ptr %res.addr, align 8
  %corruptions_fixed = getelementptr inbounds %struct.BdrvCheckResult, ptr %9, i32 0, i32 3
  %10 = load i32, ptr %corruptions_fixed, align 4
  %inc5 = add i32 %10, 1
  store i32 %inc5, ptr %corruptions_fixed, align 4
  %11 = load ptr, ptr %s, align 8
  %header_unclean6 = getelementptr inbounds %struct.BDRVParallelsState, ptr %11, i32 0, i32 3
  store i8 0, ptr %header_unclean6, align 4
  br label %if.end7

if.end7:                                          ; preds = %if.then4, %if.end, %if.then
  ret void
}

; Function Attrs: nounwind sspstrong uwtable
define internal ptr @qemu_lockable_auto_lock(ptr noundef %x) #0 {
entry:
  %x.addr = alloca ptr, align 8
  store ptr %x, ptr %x.addr, align 8
  %0 = load ptr, ptr %x.addr, align 8
  call void @qemu_lockable_lock(ptr noundef %0)
  %1 = load ptr, ptr %x.addr, align 8
  ret ptr %1
}

; Function Attrs: nounwind sspstrong uwtable
define internal i32 @parallels_co_check(ptr noundef %bs, ptr noundef %res, i32 noundef %fix) #0 {
entry:
  %retval = alloca i32, align 4
  %bs.addr = alloca ptr, align 8
  %res.addr = alloca ptr, align 8
  %fix.addr = alloca i32, align 4
  %s = alloca ptr, align 8
  %ret = alloca i32, align 4
  %qemu_lockable_auto6 = alloca ptr, align 8
  %.compoundliteral = alloca %struct.QemuLockable, align 8
  %cleanup.dest.slot = alloca i32, align 4
  store ptr %bs, ptr %bs.addr, align 8
  store ptr %res, ptr %res.addr, align 8
  store i32 %fix, ptr %fix.addr, align 4
  %0 = load ptr, ptr %bs.addr, align 8
  %opaque = getelementptr inbounds %struct.BlockDriverState, ptr %0, i32 0, i32 7
  %1 = load ptr, ptr %opaque, align 8
  store ptr %1, ptr %s, align 8
  %object = getelementptr inbounds %struct.QemuLockable, ptr %.compoundliteral, i32 0, i32 0
  %2 = load ptr, ptr %s, align 8
  %lock = getelementptr inbounds %struct.BDRVParallelsState, ptr %2, i32 0, i32 0
  store ptr %lock, ptr %object, align 8
  %lock1 = getelementptr inbounds %struct.QemuLockable, ptr %.compoundliteral, i32 0, i32 1
  store ptr @qemu_co_mutex_lock, ptr %lock1, align 8
  %unlock = getelementptr inbounds %struct.QemuLockable, ptr %.compoundliteral, i32 0, i32 2
  store ptr @qemu_co_mutex_unlock, ptr %unlock, align 8
  %call = call ptr @qemu_lockable_auto_lock(ptr noundef %.compoundliteral)
  store ptr %call, ptr %qemu_lockable_auto6, align 8
  br label %for.cond

for.cond:                                         ; preds = %for.inc, %entry
  %3 = load ptr, ptr %qemu_lockable_auto6, align 8
  %tobool = icmp ne ptr %3, null
  br i1 %tobool, label %for.body, label %for.cond.cleanup

for.cond.cleanup:                                 ; preds = %for.cond
  store i32 2, ptr %cleanup.dest.slot, align 4
  br label %cleanup

for.body:                                         ; preds = %for.cond
  %4 = load ptr, ptr %bs.addr, align 8
  %5 = load ptr, ptr %res.addr, align 8
  %6 = load i32, ptr %fix.addr, align 4
  call void @parallels_check_unclean(ptr noundef %4, ptr noundef %5, i32 noundef %6)
  %7 = load ptr, ptr %bs.addr, align 8
  %8 = load ptr, ptr %res.addr, align 8
  %9 = load i32, ptr %fix.addr, align 4
  %call2 = call i32 @parallels_check_data_off(ptr noundef %7, ptr noundef %8, i32 noundef %9)
  store i32 %call2, ptr %ret, align 4
  %10 = load i32, ptr %ret, align 4
  %cmp = icmp slt i32 %10, 0
  br i1 %cmp, label %if.then, label %if.end

if.then:                                          ; preds = %for.body
  %11 = load i32, ptr %ret, align 4
  store i32 %11, ptr %retval, align 4
  store i32 1, ptr %cleanup.dest.slot, align 4
  br label %cleanup

if.end:                                           ; preds = %for.body
  %12 = load ptr, ptr %bs.addr, align 8
  %13 = load ptr, ptr %res.addr, align 8
  %14 = load i32, ptr %fix.addr, align 4
  %call3 = call i32 @parallels_check_outside_image(ptr noundef %12, ptr noundef %13, i32 noundef %14)
  store i32 %call3, ptr %ret, align 4
  %15 = load i32, ptr %ret, align 4
  %cmp4 = icmp slt i32 %15, 0
  br i1 %cmp4, label %if.then5, label %if.end6

if.then5:                                         ; preds = %if.end
  %16 = load i32, ptr %ret, align 4
  store i32 %16, ptr %retval, align 4
  store i32 1, ptr %cleanup.dest.slot, align 4
  br label %cleanup

if.end6:                                          ; preds = %if.end
  %17 = load ptr, ptr %bs.addr, align 8
  %18 = load ptr, ptr %res.addr, align 8
  %19 = load i32, ptr %fix.addr, align 4
  %call7 = call i32 @parallels_check_leak(ptr noundef %17, ptr noundef %18, i32 noundef %19, i1 noundef zeroext true)
  store i32 %call7, ptr %ret, align 4
  %20 = load i32, ptr %ret, align 4
  %cmp8 = icmp slt i32 %20, 0
  br i1 %cmp8, label %if.then9, label %if.end10

if.then9:                                         ; preds = %if.end6
  %21 = load i32, ptr %ret, align 4
  store i32 %21, ptr %retval, align 4
  store i32 1, ptr %cleanup.dest.slot, align 4
  br label %cleanup

if.end10:                                         ; preds = %if.end6
  %22 = load ptr, ptr %bs.addr, align 8
  %23 = load ptr, ptr %res.addr, align 8
  %24 = load i32, ptr %fix.addr, align 4
  %call11 = call i32 @parallels_check_duplicate(ptr noundef %22, ptr noundef %23, i32 noundef %24)
  store i32 %call11, ptr %ret, align 4
  %25 = load i32, ptr %ret, align 4
  %cmp12 = icmp slt i32 %25, 0
  br i1 %cmp12, label %if.then13, label %if.end14

if.then13:                                        ; preds = %if.end10
  %26 = load i32, ptr %ret, align 4
  store i32 %26, ptr %retval, align 4
  store i32 1, ptr %cleanup.dest.slot, align 4
  br label %cleanup

if.end14:                                         ; preds = %if.end10
  %27 = load ptr, ptr %bs.addr, align 8
  %28 = load ptr, ptr %res.addr, align 8
  %29 = load i32, ptr %fix.addr, align 4
  call void @parallels_collect_statistics(ptr noundef %27, ptr noundef %28, i32 noundef %29)
  br label %for.inc

for.inc:                                          ; preds = %if.end14
  %30 = load ptr, ptr %qemu_lockable_auto6, align 8
  call void @qemu_lockable_auto_unlock(ptr noundef %30)
  store ptr null, ptr %qemu_lockable_auto6, align 8
  br label %for.cond, !llvm.loop !11

cleanup:                                          ; preds = %if.then13, %if.then9, %if.then5, %if.then, %for.cond.cleanup
  call void @glib_autoptr_cleanup_QemuLockable(ptr noundef %qemu_lockable_auto6)
  %cleanup.dest = load i32, ptr %cleanup.dest.slot, align 4
  switch i32 %cleanup.dest, label %unreachable [
    i32 2, label %for.end
    i32 1, label %return
  ]

for.end:                                          ; preds = %cleanup
  %31 = load ptr, ptr %bs.addr, align 8
  %call15 = call i32 @bdrv_co_flush(ptr noundef %31)
  store i32 %call15, ptr %ret, align 4
  %32 = load i32, ptr %ret, align 4
  %cmp16 = icmp slt i32 %32, 0
  br i1 %cmp16, label %if.then17, label %if.end18

if.then17:                                        ; preds = %for.end
  %33 = load ptr, ptr %res.addr, align 8
  %check_errors = getelementptr inbounds %struct.BdrvCheckResult, ptr %33, i32 0, i32 2
  %34 = load i32, ptr %check_errors, align 8
  %inc = add i32 %34, 1
  store i32 %inc, ptr %check_errors, align 8
  br label %if.end18

if.end18:                                         ; preds = %if.then17, %for.end
  %35 = load i32, ptr %ret, align 4
  store i32 %35, ptr %retval, align 4
  br label %return

return:                                           ; preds = %if.end18, %cleanup
  %36 = load i32, ptr %retval, align 4
  ret i32 %36

unreachable:                                      ; preds = %cleanup
  unreachable
}