; Function Attrs: nounwind sspstrong uwtable
define internal i32 @parallels_co_check(ptr noundef %bs, ptr noundef captures(none) %res, i32 noundef %fix) #0 {
entry:
  %opaque = getelementptr inbounds nuw i8, ptr %bs, i64 24
  %0 = load ptr, ptr %opaque, align 8
  tail call void @qemu_co_mutex_lock(ptr noundef %0) #16
  %corruptions_fixed.i = getelementptr inbounds nuw i8, ptr %res, i64 12
  %bfi.i = getelementptr inbounds nuw i8, ptr %res, i64 32
  %total_clusters.i = getelementptr inbounds nuw i8, ptr %res, i64 40
  %compressed_clusters.i = getelementptr inbounds nuw i8, ptr %res, i64 56
  %image_end_offset.i = getelementptr inbounds nuw i8, ptr %res, i64 24
  %fragmented_clusters.i = getelementptr inbounds nuw i8, ptr %res, i64 48
  %bs.val = load ptr, ptr %opaque, align 8
  %header_unclean.i = getelementptr inbounds nuw i8, ptr %bs.val, i64 60
  %1 = load i8, ptr %header_unclean.i, align 4
  %tobool.i = trunc i8 %1 to i1
  br i1 %tobool.i, label %if.end.i, label %parallels_check_unclean.exit

if.end.i:                                         ; preds = %entry
  %and.i = and i32 %fix, 2
  %tobool1.not.i = icmp eq i32 %and.i, 0
  %cond.i = select i1 %tobool1.not.i, ptr @.str.41, ptr @.str.40
  %2 = load ptr, ptr @stderr, align 8
  %call.i = tail call i32 (ptr, ptr, ...) @fprintf(ptr noundef %2, ptr noundef nonnull @.str.39, ptr noundef nonnull %cond.i) #19
  %3 = load i32, ptr %res, align 8
  %inc.i = add i32 %3, 1
  store i32 %inc.i, ptr %res, align 8
  br i1 %tobool1.not.i, label %parallels_check_unclean.exit, label %if.then4.i

if.then4.i:                                       ; preds = %if.end.i
  %4 = load i32, ptr %corruptions_fixed.i, align 4
  %inc5.i = add i32 %4, 1
  store i32 %inc5.i, ptr %corruptions_fixed.i, align 4
  store i8 0, ptr %header_unclean.i, align 4
  br label %parallels_check_unclean.exit

parallels_check_unclean.exit:                     ; preds = %entry, %if.end.i, %if.then4.i
  %call2 = tail call i32 @parallels_check_data_off(ptr noundef nonnull %bs, ptr noundef %res, i32 noundef %fix)
  %cmp = icmp slt i32 %call2, 0
  br i1 %cmp, label %glib_autoptr_cleanup_QemuLockable.exit, label %if.end

if.end:                                           ; preds = %parallels_check_unclean.exit
  %call3 = tail call i32 @parallels_check_outside_image(ptr noundef nonnull %bs, ptr noundef %res, i32 noundef %fix)
  %cmp4 = icmp slt i32 %call3, 0
  br i1 %cmp4, label %glib_autoptr_cleanup_QemuLockable.exit, label %if.end6

if.end6:                                          ; preds = %if.end
  %call7 = tail call i32 @parallels_check_leak(ptr noundef nonnull %bs, ptr noundef %res, i32 noundef %fix, i1 noundef zeroext true)
  %cmp8 = icmp slt i32 %call7, 0
  br i1 %cmp8, label %glib_autoptr_cleanup_QemuLockable.exit, label %if.end10

if.end10:                                         ; preds = %if.end6
  %call11 = tail call i32 @parallels_check_duplicate(ptr noundef nonnull %bs, ptr noundef %res, i32 noundef %fix)
  %cmp12 = icmp slt i32 %call11, 0
  br i1 %cmp12, label %glib_autoptr_cleanup_QemuLockable.exit, label %if.end14

if.end14:                                         ; preds = %if.end10
  %bs.val28 = load ptr, ptr %opaque, align 8
  %bat_size.i = getelementptr inbounds nuw i8, ptr %bs.val28, i64 104
  %5 = load i32, ptr %bat_size.i, align 8
  %conv.i = zext i32 %5 to i64
  store i64 %conv.i, ptr %total_clusters.i, align 8
  store i64 0, ptr %compressed_clusters.i, align 8
  %6 = load i32, ptr %bat_size.i, align 8
  %cmp1.not.i = icmp eq i32 %6, 0
  br i1 %cmp1.not.i, label %qemu_lockable_auto_unlock.exit, label %for.body.lr.ph.i

for.body.lr.ph.i:                                 ; preds = %if.end14
  %7 = getelementptr i8, ptr %bs.val28, i64 96
  %8 = getelementptr i8, ptr %bs.val28, i64 148
  %cluster_size.i = getelementptr inbounds nuw i8, ptr %bs.val28, i64 144
  br label %for.body.i

for.body.i:                                       ; preds = %for.inc.i, %for.body.lr.ph.i
  %9 = phi i32 [ %6, %for.body.lr.ph.i ], [ %15, %for.inc.i ]
  %indvars.iv.i = phi i64 [ 0, %for.body.lr.ph.i ], [ %indvars.iv.next.i, %for.inc.i ]
  %prev_off.02.i = phi i64 [ 0, %for.body.lr.ph.i ], [ %prev_off.1.i, %for.inc.i ]
  %.val.i = load ptr, ptr %7, align 8
  %.val15.i = load i32, ptr %8, align 4
  %arrayidx.i.i = getelementptr i32, ptr %.val.i, i64 %indvars.iv.i
  %10 = load i32, ptr %arrayidx.i.i, align 4
  %conv.i.i = zext i32 %10 to i64
  %conv1.i.i = zext i32 %.val15.i to i64
  %mul.i.i = shl nuw nsw i64 %conv1.i.i, 9
  %shl.i = mul i64 %mul.i.i, %conv.i.i
  %cmp4.i = icmp eq i64 %shl.i, 0
  br i1 %cmp4.i, label %for.inc.i, label %lor.lhs.false.i

lor.lhs.false.i:                                  ; preds = %for.body.i
  %11 = load i32, ptr %cluster_size.i, align 8
  %conv6.i = zext i32 %11 to i64
  %add.i = add i64 %shl.i, %conv6.i
  %12 = load i64, ptr %image_end_offset.i, align 8
  %cmp7.i = icmp sgt i64 %add.i, %12
  br i1 %cmp7.i, label %for.inc.i, label %if.end.i29

if.end.i29:                                       ; preds = %lor.lhs.false.i
  %cmp9.not.i = icmp eq i64 %prev_off.02.i, 0
  %add13.i = add i64 %prev_off.02.i, %conv6.i
  %cmp14.not.i = icmp eq i64 %add13.i, %shl.i
  %or.cond.i = or i1 %cmp9.not.i, %cmp14.not.i
  br i1 %or.cond.i, label %if.end18.i, label %if.then16.i

if.then16.i:                                      ; preds = %if.end.i29
  %13 = load i64, ptr %fragmented_clusters.i, align 8
  %inc.i30 = add i64 %13, 1
  store i64 %inc.i30, ptr %fragmented_clusters.i, align 8
  br label %if.end18.i

if.end18.i:                                       ; preds = %if.then16.i, %if.end.i29
  %14 = load i64, ptr %bfi.i, align 8
  %inc20.i = add i64 %14, 1
  store i64 %inc20.i, ptr %bfi.i, align 8
  %.pre.i = load i32, ptr %bat_size.i, align 8
  br label %for.inc.i

for.inc.i:                                        ; preds = %if.end18.i, %lor.lhs.false.i, %for.body.i
  %15 = phi i32 [ %.pre.i, %if.end18.i ], [ %9, %lor.lhs.false.i ], [ %9, %for.body.i ]
  %prev_off.1.i = phi i64 [ %shl.i, %if.end18.i ], [ 0, %lor.lhs.false.i ], [ 0, %for.body.i ]
  %indvars.iv.next.i = add nuw nsw i64 %indvars.iv.i, 1
  %16 = zext i32 %15 to i64
  %cmp.i = icmp samesign ult i64 %indvars.iv.next.i, %16
  br i1 %cmp.i, label %for.body.i, label %qemu_lockable_auto_unlock.exit, !llvm.loop !13

qemu_lockable_auto_unlock.exit:                   ; preds = %for.inc.i, %if.end14
  tail call void @qemu_co_mutex_unlock(ptr noundef %0) #16
  %call15 = tail call i32 @bdrv_co_flush(ptr noundef nonnull %bs) #16
  %cmp16 = icmp slt i32 %call15, 0
  br i1 %cmp16, label %if.then17, label %return

glib_autoptr_cleanup_QemuLockable.exit:           ; preds = %parallels_check_unclean.exit, %if.end, %if.end6, %if.end10
  %retval.0.ph = phi i32 [ %call11, %if.end10 ], [ %call7, %if.end6 ], [ %call3, %if.end ], [ %call2, %parallels_check_unclean.exit ]
  tail call void @qemu_co_mutex_unlock(ptr noundef %0) #16
  br label %return

if.then17:                                        ; preds = %qemu_lockable_auto_unlock.exit
  %check_errors = getelementptr inbounds nuw i8, ptr %res, i64 8
  %17 = load i32, ptr %check_errors, align 8
  %inc = add i32 %17, 1
  store i32 %inc, ptr %check_errors, align 8
  br label %return

return:                                           ; preds = %glib_autoptr_cleanup_QemuLockable.exit, %qemu_lockable_auto_unlock.exit, %if.then17
  %retval.1 = phi i32 [ %retval.0.ph, %glib_autoptr_cleanup_QemuLockable.exit ], [ %call15, %if.then17 ], [ %call15, %qemu_lockable_auto_unlock.exit ]
  ret i32 %retval.1
}